target datalayout = "e-m:e-p270:32:32-p271:32:32-p272:64:64-i64:64-i128:128-f80:128-n8:16:32:64-S128"
target triple = "x86_64-pc-linux-gnu"

%"struct.std::pair" = type { i32, i32 }

; Function Attrs: mustprogress nounwind uwtable
define noundef zeroext i16 @_ZN10open_spiel10phantom_go23VirtualPointFrom2DPointESt4pairIiiE(i64 %0) #4 {
  %2 = alloca %"struct.std::pair", align 4
  store i64 %0, ptr %2, align 4
  %3 = getelementptr inbounds nuw %"struct.std::pair", ptr %2, i32 0, i32 0
  %4 = load i32, ptr %3, align 4
  %5 = add nsw i32 %4, 1
  %6 = mul nsw i32 %5, 21
  %7 = getelementptr inbounds nuw %"struct.std::pair", ptr %2, i32 0, i32 1
  %8 = load i32, ptr %7, align 4
  %9 = add nsw i32 %6, %8
  %10 = add nsw i32 %9, 1
  %11 = trunc i32 %10 to i16
  ret i16 %11
}

; Function Attrs: mustprogress nounwind uwtable
define linkonce_odr void @_ZNSt4pairIiiEC2IiiTnNSt9enable_ifIXsr6__and_ISt37__is_implicitly_default_constructibleIT_ES3_IT0_EEE5valueEbE4typeELb1EEEv(ptr noundef nonnull align 4 dereferenceable(8) %0) unnamed_addr #4 comdat align 2 {
  %2 = alloca ptr, align 8
  store ptr %0, ptr %2, align 8
  %3 = load ptr, ptr %2, align 8
  %4 = getelementptr inbounds nuw %"struct.std::pair", ptr %3, i32 0, i32 0
  store i32 0, ptr %4, align 4
  %5 = getelementptr inbounds nuw %"struct.std::pair", ptr %3, i32 0, i32 1
  store i32 0, ptr %5, align 4
  ret void
}

; Function Attrs: mustprogress uwtable
define noundef zeroext i16 @_ZN10open_spiel10phantom_go26VirtualPointFromBoardPointEii(i32 noundef %0, i32 noundef %1) #5 {
  %3 = alloca i32, align 4
  %4 = alloca i32, align 4
  %5 = alloca %"struct.std::pair", align 4
  %6 = alloca %"struct.std::pair", align 4
  store i32 %0, ptr %3, align 4
  store i32 %1, ptr %4, align 4
  call void @_ZNSt4pairIiiEC2IiiTnNSt9enable_ifIXsr6__and_ISt37__is_implicitly_default_constructibleIT_ES3_IT0_EEE5valueEbE4typeELb1EEEv(ptr noundef nonnull align 4 dereferenceable(8) %5)
  %7 = load i32, ptr %3, align 4
  %8 = load i32, ptr %4, align 4
  %9 = srem i32 %7, %8
  %10 = getelementptr inbounds nuw %"struct.std::pair", ptr %5, i32 0, i32 1
  store i32 %9, ptr %10, align 4
  %11 = load i32, ptr %3, align 4
  %12 = load i32, ptr %4, align 4
  %13 = sdiv i32 %11, %12
  %14 = getelementptr inbounds nuw %"struct.std::pair", ptr %5, i32 0, i32 0
  store i32 %13, ptr %14, align 4
  call void @llvm.memcpy.p0.p0.i64(ptr align 4 %6, ptr align 4 %5, i64 8, i1 false)
  %15 = load i64, ptr %6, align 4
  %16 = call noundef zeroext i16 @_ZN10open_spiel10phantom_go23VirtualPointFrom2DPointESt4pairIiiE(i64 %15)
  ret i16 %16
}