; Function Attrs: mustprogress nofree norecurse nosync nounwind willreturn memory(none) uwtable
define noundef zeroext i16 @_ZN10open_spiel10phantom_go26VirtualPointFromBoardPointEii(i32 noundef %0, i32 noundef %1) local_unnamed_addr #6 {
  %3 = srem i32 %0, %1
  %4 = sdiv i32 %0, %1
  %.sroa.0.0.extract.trunc.i = trunc i32 %4 to i16
  %.sroa.2.0.extract.trunc.i = trunc i32 %3 to i16
  %5 = mul i16 %.sroa.0.0.extract.trunc.i, 21
  %6 = add i16 %.sroa.2.0.extract.trunc.i, 22
  %7 = add i16 %6, %5
  ret i16 %7
}